; Function Attrs: mustprogress uwtable
define internal noundef nonnull ptr @_ZNK7testing8internal30ValuesInIteratorRangeGeneratorIN12_GLOBAL__N_116TimeoutTestParamEE8Iterator7CurrentEv(ptr nocapture noundef nonnull align 8 dereferenceable(32) %this) unnamed_addr #3 align 2 {
entry:
  %value_ = getelementptr inbounds i8, ptr %this, i64 24
  %value_.val = load ptr, ptr %value_, align 8
  %cmp = icmp eq ptr %value_.val, null
  br i1 %cmp, label %_ZNSt10unique_ptrIKN12_GLOBAL__N_116TimeoutTestParamESt14default_deleteIS2_EE5resetEPS2_.exit, label %if.end

_ZNSt10unique_ptrIKN12_GLOBAL__N_116TimeoutTestParamESt14default_deleteIS2_EE5resetEPS2_.exit: ; preds = %entry
  %call3 = tail call noalias noundef nonnull dereferenceable(56) ptr @_Znwm(i64 noundef 56) #36
  %iterator_ = getelementptr inbounds i8, ptr %this, i64 16
  %iterator_.val = load ptr, ptr %iterator_, align 8
  tail call void @llvm.memcpy.p0.p0.i64(ptr noundef nonnull align 16 dereferenceable(56) %call3, ptr noundef nonnull align 8 dereferenceable(56) %iterator_.val, i64 56, i1 false)
  store ptr %call3, ptr %value_, align 8
  br label %if.end

if.end:                                           ; preds = %_ZNSt10unique_ptrIKN12_GLOBAL__N_116TimeoutTestParamESt14default_deleteIS2_EE5resetEPS2_.exit, %entry
  %value_.val1 = phi ptr [ %call3, %_ZNSt10unique_ptrIKN12_GLOBAL__N_116TimeoutTestParamESt14default_deleteIS2_EE5resetEPS2_.exit ], [ %value_.val, %entry ]
  ret ptr %value_.val1
}